target datalayout = "e-m:e-p270:32:32-p271:32:32-p272:64:64-i64:64-i128:128-f80:128-n8:16:32:64-S128"
target triple = "x86_64-pc-linux-gnu"

%"struct.Luau::CodeGen::X64::RegisterX64" = type { i8 }
%"struct.Luau::CodeGen::X64::OperandX64" = type { i8, %"struct.Luau::CodeGen::X64::RegisterX64", %"struct.Luau::CodeGen::X64::RegisterX64", i8, i32 }
%"struct.Luau::CodeGen::X64::IrLoweringX64" = type { ptr, ptr, ptr, ptr, %"struct.Luau::CodeGen::X64::IrRegAllocX64", %"struct.Luau::CodeGen::IrValueLocationTracking", %"class.std::vector.2", %"class.std::vector.7", %"class.Luau::DenseHashMap", %"struct.Luau::CodeGen::X64::OperandX64", %"struct.Luau::CodeGen::X64::OperandX64" }
%"struct.Luau::CodeGen::X64::IrRegAllocX64" = type { ptr, ptr, ptr, i32, %"struct.std::array", %"struct.std::array.0", %"struct.std::array", %"struct.std::array.0", i8, %"class.std::bitset", i32, i32, %"class.std::vector" }
%"struct.std::array" = type { [16 x i8] }
%"struct.std::array.0" = type { [16 x i32] }
%"class.std::bitset" = type { %"struct.std::_Base_bitset" }
%"struct.std::_Base_bitset" = type { [4 x i64] }
%"class.std::vector" = type { %"struct.std::_Vector_base" }
%"struct.std::_Vector_base" = type { %"struct.std::_Vector_base<Luau::CodeGen::X64::IrSpillX64, std::allocator<Luau::CodeGen::X64::IrSpillX64>>::_Vector_impl" }
%"struct.std::_Vector_base<Luau::CodeGen::X64::IrSpillX64, std::allocator<Luau::CodeGen::X64::IrSpillX64>>::_Vector_impl" = type { %"struct.std::_Vector_base<Luau::CodeGen::X64::IrSpillX64, std::allocator<Luau::CodeGen::X64::IrSpillX64>>::_Vector_impl_data" }
%"struct.std::_Vector_base<Luau::CodeGen::X64::IrSpillX64, std::allocator<Luau::CodeGen::X64::IrSpillX64>>::_Vector_impl_data" = type { ptr, ptr, ptr }
%"struct.Luau::CodeGen::IrValueLocationTracking" = type { ptr, %"struct.std::array.1", i32, ptr, ptr }
%"struct.std::array.1" = type { [256 x i32] }
%"class.std::vector.2" = type { %"struct.std::_Vector_base.3" }
%"struct.std::_Vector_base.3" = type { %"struct.std::_Vector_base<Luau::CodeGen::X64::IrLoweringX64::InterruptHandler, std::allocator<Luau::CodeGen::X64::IrLoweringX64::InterruptHandler>>::_Vector_impl" }
%"struct.std::_Vector_base<Luau::CodeGen::X64::IrLoweringX64::InterruptHandler, std::allocator<Luau::CodeGen::X64::IrLoweringX64::InterruptHandler>>::_Vector_impl" = type { %"struct.std::_Vector_base<Luau::CodeGen::X64::IrLoweringX64::InterruptHandler, std::allocator<Luau::CodeGen::X64::IrLoweringX64::InterruptHandler>>::_Vector_impl_data" }
%"struct.std::_Vector_base<Luau::CodeGen::X64::IrLoweringX64::InterruptHandler, std::allocator<Luau::CodeGen::X64::IrLoweringX64::InterruptHandler>>::_Vector_impl_data" = type { ptr, ptr, ptr }
%"class.std::vector.7" = type { %"struct.std::_Vector_base.8" }
%"struct.std::_Vector_base.8" = type { %"struct.std::_Vector_base<Luau::CodeGen::X64::IrLoweringX64::ExitHandler, std::allocator<Luau::CodeGen::X64::IrLoweringX64::ExitHandler>>::_Vector_impl" }
%"struct.std::_Vector_base<Luau::CodeGen::X64::IrLoweringX64::ExitHandler, std::allocator<Luau::CodeGen::X64::IrLoweringX64::ExitHandler>>::_Vector_impl" = type { %"struct.std::_Vector_base<Luau::CodeGen::X64::IrLoweringX64::ExitHandler, std::allocator<Luau::CodeGen::X64::IrLoweringX64::ExitHandler>>::_Vector_impl_data" }
%"struct.std::_Vector_base<Luau::CodeGen::X64::IrLoweringX64::ExitHandler, std::allocator<Luau::CodeGen::X64::IrLoweringX64::ExitHandler>>::_Vector_impl_data" = type { ptr, ptr, ptr }
%"class.Luau::DenseHashMap" = type { %"class.Luau::detail::DenseHashTable" }
%"class.Luau::detail::DenseHashTable" = type <{ ptr, i64, i64, i32, [4 x i8] }>
%"struct.Luau::CodeGen::Label" = type { i32, i32 }
%"struct.Luau::CodeGen::IrBlock" = type { i8, i16, i32, i32, i32, i32, i32, %"struct.Luau::CodeGen::Label" }

; Function Attrs: mustprogress nounwind uwtable
define dso_local noundef zeroext i1 @_ZN4Luau7CodeGen3X6413IrLoweringX6418isFallthroughBlockERKNS0_7IrBlockES5_(ptr noundef nonnull align 8 dereferenceable(1440) %0, ptr noundef nonnull align 4 dereferenceable(32) %1, ptr noundef nonnull align 4 dereferenceable(32) %2) #2 align 2 {
  %4 = alloca ptr, align 8
  %5 = alloca ptr, align 8
  %6 = alloca ptr, align 8
  store ptr %0, ptr %4, align 8, !tbaa !4
  store ptr %1, ptr %5, align 8, !tbaa !94
  store ptr %2, ptr %6, align 8, !tbaa !94
  %7 = load ptr, ptr %5, align 8, !tbaa !94
  %8 = getelementptr inbounds nuw %"struct.Luau::CodeGen::IrBlock", ptr %7, i32 0, i32 2
  %9 = load i32, ptr %8, align 4, !tbaa !193
  %10 = load ptr, ptr %6, align 8, !tbaa !94
  %11 = getelementptr inbounds nuw %"struct.Luau::CodeGen::IrBlock", ptr %10, i32 0, i32 2
  %12 = load i32, ptr %11, align 4, !tbaa !193
  %13 = icmp eq i32 %9, %12
  ret i1 %13
}

; Function Attrs: mustprogress uwtable
define dso_local void @_ZN4Luau7CodeGen3X6413IrLoweringX6417jumpOrFallthroughERNS0_7IrBlockERKS3_(ptr noundef nonnull align 8 dereferenceable(1440) %0, ptr noundef nonnull align 4 dereferenceable(32) %1, ptr noundef nonnull align 4 dereferenceable(32) %2) #0 align 2 {
  %4 = alloca ptr, align 8
  %5 = alloca ptr, align 8
  %6 = alloca ptr, align 8
  store ptr %0, ptr %4, align 8, !tbaa !4
  store ptr %1, ptr %5, align 8, !tbaa !94
  store ptr %2, ptr %6, align 8, !tbaa !94
  %7 = load ptr, ptr %4, align 8
  %8 = load ptr, ptr %5, align 8, !tbaa !94
  %9 = load ptr, ptr %6, align 8, !tbaa !94
  %10 = call noundef zeroext i1 @_ZN4Luau7CodeGen3X6413IrLoweringX6418isFallthroughBlockERKNS0_7IrBlockES5_(ptr noundef nonnull align 8 dereferenceable(1440) %7, ptr noundef nonnull align 4 dereferenceable(32) %8, ptr noundef nonnull align 4 dereferenceable(32) %9)
  br i1 %10, label %16, label %11

11:                                               ; preds = %3
  %12 = getelementptr inbounds nuw %"struct.Luau::CodeGen::X64::IrLoweringX64", ptr %7, i32 0, i32 0
  %13 = load ptr, ptr %12, align 8, !tbaa !75
  %14 = load ptr, ptr %5, align 8, !tbaa !94
  %15 = getelementptr inbounds nuw %"struct.Luau::CodeGen::IrBlock", ptr %14, i32 0, i32 7
  call void @_ZN4Luau7CodeGen3X6418AssemblyBuilderX643jmpERNS0_5LabelE(ptr noundef nonnull align 8 dereferenceable(252) %13, ptr noundef nonnull align 4 dereferenceable(8) %15)
  br label %16

16:                                               ; preds = %11, %3
  ret void
}